; ModuleID = 'source-C-CXX/24/467.cpp'
source_filename = "source-C-CXX/24/467.cpp"
target datalayout = "e-m:e-p270:32:32-p271:32:32-p272:64:64-i64:64-f80:128-n8:16:32:64-S128"
target triple = "x86_64-pc-linux-gnu"

%"class.std::ios_base::Init" = type { i8 }
%"class.std::basic_istream" = type { i32 (...)**, i64, %"class.std::basic_ios" }
%"class.std::basic_ios" = type { %"class.std::ios_base", %"class.std::basic_ostream"*, i8, i8, %"class.std::basic_streambuf"*, %"class.std::ctype"*, %"class.std::num_put"*, %"class.std::num_get"* }
%"class.std::ios_base" = type { i32 (...)**, i64, i64, i32, i32, i32, %"struct.std::ios_base::_Callback_list"*, %"struct.std::ios_base::_Words", [8 x %"struct.std::ios_base::_Words"], i32, %"struct.std::ios_base::_Words"*, %"class.std::locale" }
%"struct.std::ios_base::_Callback_list" = type { %"struct.std::ios_base::_Callback_list"*, void (i32, %"class.std::ios_base"*, i32)*, i32, i32 }
%"struct.std::ios_base::_Words" = type { i8*, i64 }
%"class.std::locale" = type { %"class.std::locale::_Impl"* }
%"class.std::locale::_Impl" = type { i32, %"class.std::locale::facet"**, i64, %"class.std::locale::facet"**, i8** }
%"class.std::locale::facet" = type <{ i32 (...)**, i32, [4 x i8] }>
%"class.std::basic_ostream" = type { i32 (...)**, %"class.std::basic_ios" }
%"class.std::basic_streambuf" = type { i32 (...)**, i8*, i8*, i8*, i8*, i8*, i8*, %"class.std::locale" }
%"class.std::ctype" = type <{ %"class.std::locale::facet.base", [4 x i8], %struct.__locale_struct*, i8, [7 x i8], i32*, i32*, i16*, i8, [256 x i8], [256 x i8], i8, [6 x i8] }>
%"class.std::locale::facet.base" = type <{ i32 (...)**, i32 }>
%struct.__locale_struct = type { [13 x %struct.__locale_data*], i16*, i32*, i32*, [13 x i8*] }
%struct.__locale_data = type opaque
%"class.std::num_put" = type { %"class.std::locale::facet.base", [4 x i8] }
%"class.std::num_get" = type { %"class.std::locale::facet.base", [4 x i8] }

@_ZStL8__ioinit = internal global %"class.std::ios_base::Init" zeroinitializer, align 1
@__dso_handle = external hidden global i8
@r = dso_local global [101 x i8] zeroinitializer, align 16
@_ZSt3cin = external global %"class.std::basic_istream", align 8
@_ZSt4cout = external global %"class.std::basic_ostream", align 8
@llvm.global_ctors = appending global [1 x { i32, void ()*, i8* }] [{ i32, void ()*, i8* } { i32 65535, void ()* @_GLOBAL__sub_I_467.cpp, i8* null }]

declare void @_ZNSt8ios_base4InitC1Ev(%"class.std::ios_base::Init"* nonnull align 1 dereferenceable(1)) unnamed_addr #0

; Function Attrs: nounwind
declare void @_ZNSt8ios_base4InitD1Ev(%"class.std::ios_base::Init"* nonnull align 1 dereferenceable(1)) unnamed_addr #1

; Function Attrs: nofree nounwind
declare i32 @__cxa_atexit(void (i8*)*, i8*, i8*) local_unnamed_addr #2

; Function Attrs: mustprogress norecurse sspstrong uwtable
define dso_local i32 @main() local_unnamed_addr #3 {
  %1 = alloca i8, align 1
  %2 = alloca i32, align 4
  %3 = bitcast i32* %2 to i8*
  call void @llvm.lifetime.start.p0i8(i64 4, i8* nonnull %3) #7
  %4 = call nonnull align 8 dereferenceable(16) %"class.std::basic_istream"* @_ZNSirsERi(%"class.std::basic_istream"* nonnull align 8 dereferenceable(16) @_ZSt3cin, i32* nonnull align 4 dereferenceable(4) %2)
  store i8 49, i8* getelementptr inbounds ([101 x i8], [101 x i8]* @r, i64 0, i64 0), align 16, !tbaa !5
  %5 = load i32, i32* %2, align 4, !tbaa !8
  %6 = icmp eq i32 %5, 0
  br i1 %6, label %9, label %7

7:                                                ; preds = %0
  %8 = icmp slt i32 %5, 1
  br i1 %8, label %51, label %11

9:                                                ; preds = %0
  %10 = call nonnull align 8 dereferenceable(8) %"class.std::basic_ostream"* @_ZNSolsEi(%"class.std::basic_ostream"* nonnull align 8 dereferenceable(8) @_ZSt4cout, i32 1)
  br label %64

11:                                               ; preds = %7, %48
  %12 = phi i8 [ %50, %48 ], [ 49, %7 ]
  %13 = phi i32 [ %49, %48 ], [ 1, %7 ]
  %14 = icmp eq i8 %12, 0
  br i1 %14, label %46, label %15

15:                                               ; preds = %11
  %16 = add i8 %12, -48
  %17 = icmp ult i8 %16, 5
  %18 = shl i8 %12, 1
  %19 = select i1 %17, i8 -48, i8 -58
  %20 = add i8 %18, %19
  store i8 %20, i8* getelementptr inbounds ([101 x i8], [101 x i8]* @r, i64 0, i64 0), align 16, !tbaa !5
  %21 = call i64 @strlen(i8* noundef nonnull dereferenceable(1) getelementptr inbounds ([101 x i8], [101 x i8]* @r, i64 0, i64 0)) #8
  %22 = icmp ugt i64 %21, 1
  br i1 %22, label %23, label %40, !llvm.loop !10

23:                                               ; preds = %15, %23
  %24 = phi i64 [ %37, %23 ], [ 1, %15 ]
  %25 = phi i1 [ %32, %23 ], [ %17, %15 ]
  %26 = xor i1 %25, true
  %27 = zext i1 %26 to i8
  %28 = getelementptr inbounds [101 x i8], [101 x i8]* @r, i64 0, i64 %24
  %29 = load i8, i8* %28, align 1, !tbaa !5
  %30 = getelementptr inbounds [101 x i8], [101 x i8]* @r, i64 0, i64 %24
  %31 = add i8 %29, -48
  %32 = icmp ult i8 %31, 5
  %33 = shl i8 %29, 1
  %34 = select i1 %32, i8 -48, i8 -58
  %35 = add i8 %33, %34
  %36 = or i8 %35, %27
  store i8 %36, i8* %30, align 1, !tbaa !5
  %37 = add nuw nsw i64 %24, 1
  %38 = call i64 @strlen(i8* noundef nonnull dereferenceable(1) getelementptr inbounds ([101 x i8], [101 x i8]* @r, i64 0, i64 0)) #8
  %39 = icmp ugt i64 %38, %37
  br i1 %39, label %23, label %40, !llvm.loop !10

40:                                               ; preds = %23, %15
  %41 = phi i1 [ %17, %15 ], [ %32, %23 ]
  %42 = phi i64 [ 1, %15 ], [ %37, %23 ]
  br i1 %41, label %46, label %43

43:                                               ; preds = %40
  %44 = and i64 %42, 4294967295
  %45 = getelementptr inbounds [101 x i8], [101 x i8]* @r, i64 0, i64 %44
  store i8 49, i8* %45, align 1, !tbaa !5
  br label %46

46:                                               ; preds = %11, %40, %43
  %47 = icmp eq i32 %13, %5
  br i1 %47, label %51, label %48, !llvm.loop !12

48:                                               ; preds = %46
  %49 = add nuw i32 %13, 1
  %50 = load i8, i8* getelementptr inbounds ([101 x i8], [101 x i8]* @r, i64 0, i64 0), align 16
  br label %11

51:                                               ; preds = %46, %7
  %52 = call i64 @strlen(i8* noundef nonnull dereferenceable(1) getelementptr inbounds ([101 x i8], [101 x i8]* @r, i64 0, i64 0)) #8
  %53 = trunc i64 %52 to i32
  %54 = add i32 %53, -1
  %55 = icmp sgt i32 %54, -1
  br i1 %55, label %56, label %64

56:                                               ; preds = %51, %56
  %57 = phi i32 [ %62, %56 ], [ %54, %51 ]
  %58 = zext i32 %57 to i64
  %59 = getelementptr inbounds [101 x i8], [101 x i8]* @r, i64 0, i64 %58
  %60 = load i8, i8* %59, align 1, !tbaa !5
  call void @llvm.lifetime.start.p0i8(i64 1, i8* nonnull %1)
  store i8 %60, i8* %1, align 1, !tbaa !5
  %61 = call nonnull align 8 dereferenceable(8) %"class.std::basic_ostream"* @_ZSt16__ostream_insertIcSt11char_traitsIcEERSt13basic_ostreamIT_T0_ES6_PKS3_l(%"class.std::basic_ostream"* nonnull align 8 dereferenceable(8) @_ZSt4cout, i8* nonnull %1, i64 1)
  call void @llvm.lifetime.end.p0i8(i64 1, i8* nonnull %1)
  %62 = add nsw i32 %57, -1
  %63 = icmp sgt i32 %57, 0
  br i1 %63, label %56, label %64, !llvm.loop !13

64:                                               ; preds = %56, %51, %9
  call void @llvm.lifetime.end.p0i8(i64 4, i8* nonnull %3) #7
  ret i32 0
}

; Function Attrs: argmemonly mustprogress nofree nosync nounwind willreturn
declare void @llvm.lifetime.start.p0i8(i64 immarg, i8* nocapture) #4

declare nonnull align 8 dereferenceable(16) %"class.std::basic_istream"* @_ZNSirsERi(%"class.std::basic_istream"* nonnull align 8 dereferenceable(16), i32* nonnull align 4 dereferenceable(4)) local_unnamed_addr #0

declare nonnull align 8 dereferenceable(8) %"class.std::basic_ostream"* @_ZNSolsEi(%"class.std::basic_ostream"* nonnull align 8 dereferenceable(8), i32) local_unnamed_addr #0

; Function Attrs: argmemonly mustprogress nofree nounwind readonly willreturn
declare i64 @strlen(i8* nocapture) local_unnamed_addr #5

; Function Attrs: argmemonly mustprogress nofree nosync nounwind willreturn
declare void @llvm.lifetime.end.p0i8(i64 immarg, i8* nocapture) #4

declare nonnull align 8 dereferenceable(8) %"class.std::basic_ostream"* @_ZSt16__ostream_insertIcSt11char_traitsIcEERSt13basic_ostreamIT_T0_ES6_PKS3_l(%"class.std::basic_ostream"* nonnull align 8 dereferenceable(8), i8*, i64) local_unnamed_addr #0

; Function Attrs: sspstrong uwtable
define internal void @_GLOBAL__sub_I_467.cpp() #6 section ".text.startup" {
  tail call void @_ZNSt8ios_base4InitC1Ev(%"class.std::ios_base::Init"* nonnull align 1 dereferenceable(1) @_ZStL8__ioinit)
  %1 = tail call i32 @__cxa_atexit(void (i8*)* bitcast (void (%"class.std::ios_base::Init"*)* @_ZNSt8ios_base4InitD1Ev to void (i8*)*), i8* getelementptr inbounds (%"class.std::ios_base::Init", %"class.std::ios_base::Init"* @_ZStL8__ioinit, i64 0, i32 0), i8* nonnull @__dso_handle) #7
  ret void
}


!llvm.module.flags = !{!0, !1, !2, !3}
!llvm.ident = !{!4}

!0 = !{i32 1, !"wchar_size", i32 4}
!1 = !{i32 7, !"PIC Level", i32 2}
!2 = !{i32 7, !"PIE Level", i32 2}
!3 = !{i32 7, !"uwtable", i32 1}
!4 = !{!"clang version 13.0.0"}
!5 = !{!6, !6, i64 0}
!6 = !{!"omnipotent char", !7, i64 0}
!7 = !{!"Simple C++ TBAA"}
!8 = !{!9, !9, i64 0}
!9 = !{!"int", !6, i64 0}
!10 = distinct !{!10, !11}
!11 = !{!"llvm.loop.mustprogress"}
!12 = distinct !{!12, !11}
!13 = distinct !{!13, !11}
